target datalayout = "e-m:e-p270:32:32-p271:32:32-p272:64:64-i64:64-i128:128-f80:128-n8:16:32:64-S128"
target triple = "x86_64-pc-linux-gnu"

%struct.lua_Debug = type { i32, ptr, ptr, ptr, ptr, i64, i32, i32, i32, i8, i8, i8, i8, i8, i32, i32, [60 x i8], ptr }

@.str.28 = private unnamed_addr constant [15 x i8] c"stack overflow\00", align 1
@.str.50 = private unnamed_addr constant [19 x i8] c"level out of range\00", align 1

; Function Attrs: nounwind uwtable
define internal void @checkstack(ptr noundef %0, ptr noundef %1, i32 noundef %2) #0 {
  %4 = alloca ptr, align 8
  %5 = alloca ptr, align 8
  %6 = alloca i32, align 4
  store ptr %0, ptr %4, align 8, !tbaa !4
  store ptr %1, ptr %5, align 8, !tbaa !4
  store i32 %2, ptr %6, align 4, !tbaa !11
  %7 = load ptr, ptr %4, align 8, !tbaa !4
  %8 = load ptr, ptr %5, align 8, !tbaa !4
  %9 = icmp ne ptr %7, %8
  br i1 %9, label %10, label %16

10:                                               ; preds = %3
  %11 = load ptr, ptr %5, align 8, !tbaa !4
  %12 = load i32, ptr %6, align 4, !tbaa !11
  %13 = call i32 @lua_checkstack(ptr noundef %11, i32 noundef %12)
  %14 = icmp ne i32 %13, 0
  %15 = xor i1 %14, true
  br label %16

16:                                               ; preds = %10, %3
  %17 = phi i1 [ false, %3 ], [ %15, %10 ]
  %18 = zext i1 %17 to i32
  %19 = icmp ne i32 %18, 0
  %20 = zext i1 %19 to i32
  %21 = sext i32 %20 to i64
  %22 = call i64 @llvm.expect.i64(i64 %21, i64 0)
  %23 = icmp ne i64 %22, 0
  br i1 %23, label %24, label %27

24:                                               ; preds = %16
  %25 = load ptr, ptr %4, align 8, !tbaa !4
  %26 = call i32 (ptr, ptr, ...) @luaL_error(ptr noundef %25, ptr noundef @.str.28)
  br label %27

27:                                               ; preds = %24, %16
  ret void
}

; Function Attrs: nounwind uwtable
define internal ptr @getthread(ptr noundef %0, ptr noundef %1) #0 {
  %3 = alloca ptr, align 8
  %4 = alloca ptr, align 8
  %5 = alloca ptr, align 8
  store ptr %0, ptr %4, align 8, !tbaa !4
  store ptr %1, ptr %5, align 8, !tbaa !35
  %6 = load ptr, ptr %4, align 8, !tbaa !4
  %7 = call i32 @lua_type(ptr noundef %6, i32 noundef 1)
  %8 = icmp eq i32 %7, 8
  br i1 %8, label %9, label %13

9:                                                ; preds = %2
  %10 = load ptr, ptr %5, align 8, !tbaa !35
  store i32 1, ptr %10, align 4, !tbaa !11
  %11 = load ptr, ptr %4, align 8, !tbaa !4
  %12 = call ptr @lua_tothread(ptr noundef %11, i32 noundef 1)
  store ptr %12, ptr %3, align 8
  br label %16

13:                                               ; preds = %2
  %14 = load ptr, ptr %5, align 8, !tbaa !35
  store i32 0, ptr %14, align 4, !tbaa !11
  %15 = load ptr, ptr %4, align 8, !tbaa !4
  store ptr %15, ptr %3, align 8
  br label %16

16:                                               ; preds = %13, %9
  %17 = load ptr, ptr %3, align 8
  ret ptr %17
}

; Function Attrs: nounwind uwtable
define internal i32 @db_setlocal(ptr noundef %0) #0 {
  %2 = alloca i32, align 4
  %3 = alloca ptr, align 8
  %4 = alloca i32, align 4
  %5 = alloca ptr, align 8
  %6 = alloca ptr, align 8
  %7 = alloca %struct.lua_Debug, align 8
  %8 = alloca i32, align 4
  %9 = alloca i32, align 4
  %10 = alloca i32, align 4
  store ptr %0, ptr %3, align 8, !tbaa !4
  call void @llvm.lifetime.start.p0(i64 4, ptr %4) #6
  call void @llvm.lifetime.start.p0(i64 8, ptr %5) #6
  call void @llvm.lifetime.start.p0(i64 8, ptr %6) #6
  %11 = load ptr, ptr %3, align 8, !tbaa !4
  %12 = call ptr @getthread(ptr noundef %11, ptr noundef %4)
  store ptr %12, ptr %6, align 8, !tbaa !4
  call void @llvm.lifetime.start.p0(i64 144, ptr %7) #6
  call void @llvm.lifetime.start.p0(i64 4, ptr %8) #6
  %13 = load ptr, ptr %3, align 8, !tbaa !4
  %14 = load i32, ptr %4, align 4, !tbaa !11
  %15 = add nsw i32 %14, 1
  %16 = call i64 @luaL_checkinteger(ptr noundef %13, i32 noundef %15)
  %17 = trunc i64 %16 to i32
  store i32 %17, ptr %8, align 4, !tbaa !11
  call void @llvm.lifetime.start.p0(i64 4, ptr %9) #6
  %18 = load ptr, ptr %3, align 8, !tbaa !4
  %19 = load i32, ptr %4, align 4, !tbaa !11
  %20 = add nsw i32 %19, 2
  %21 = call i64 @luaL_checkinteger(ptr noundef %18, i32 noundef %20)
  %22 = trunc i64 %21 to i32
  store i32 %22, ptr %9, align 4, !tbaa !11
  %23 = load ptr, ptr %6, align 8, !tbaa !4
  %24 = load i32, ptr %8, align 4, !tbaa !11
  %25 = call i32 @lua_getstack(ptr noundef %23, i32 noundef %24, ptr noundef %7)
  %26 = icmp ne i32 %25, 0
  %27 = xor i1 %26, true
  %28 = zext i1 %27 to i32
  %29 = icmp ne i32 %28, 0
  %30 = zext i1 %29 to i32
  %31 = sext i32 %30 to i64
  %32 = call i64 @llvm.expect.i64(i64 %31, i64 0)
  %33 = icmp ne i64 %32, 0
  br i1 %33, label %34, label %39

34:                                               ; preds = %1
  %35 = load ptr, ptr %3, align 8, !tbaa !4
  %36 = load i32, ptr %4, align 4, !tbaa !11
  %37 = add nsw i32 %36, 1
  %38 = call i32 @luaL_argerror(ptr noundef %35, i32 noundef %37, ptr noundef @.str.50)
  store i32 %38, ptr %2, align 4
  store i32 1, ptr %10, align 4
  br label %61

39:                                               ; preds = %1
  %40 = load ptr, ptr %3, align 8, !tbaa !4
  %41 = load i32, ptr %4, align 4, !tbaa !11
  %42 = add nsw i32 %41, 3
  call void @luaL_checkany(ptr noundef %40, i32 noundef %42)
  %43 = load ptr, ptr %3, align 8, !tbaa !4
  %44 = load i32, ptr %4, align 4, !tbaa !11
  %45 = add nsw i32 %44, 3
  call void @lua_settop(ptr noundef %43, i32 noundef %45)
  %46 = load ptr, ptr %3, align 8, !tbaa !4
  %47 = load ptr, ptr %6, align 8, !tbaa !4
  call void @checkstack(ptr noundef %46, ptr noundef %47, i32 noundef 1)
  %48 = load ptr, ptr %3, align 8, !tbaa !4
  %49 = load ptr, ptr %6, align 8, !tbaa !4
  call void @lua_xmove(ptr noundef %48, ptr noundef %49, i32 noundef 1)
  %50 = load ptr, ptr %6, align 8, !tbaa !4
  %51 = load i32, ptr %9, align 4, !tbaa !11
  %52 = call ptr @lua_setlocal(ptr noundef %50, ptr noundef %7, i32 noundef %51)
  store ptr %52, ptr %5, align 8, !tbaa !14
  %53 = load ptr, ptr %5, align 8, !tbaa !14
  %54 = icmp eq ptr %53, null
  br i1 %54, label %55, label %57

55:                                               ; preds = %39
  %56 = load ptr, ptr %6, align 8, !tbaa !4
  call void @lua_settop(ptr noundef %56, i32 noundef -2)
  br label %57

57:                                               ; preds = %55, %39
  %58 = load ptr, ptr %3, align 8, !tbaa !4
  %59 = load ptr, ptr %5, align 8, !tbaa !14
  %60 = call ptr @lua_pushstring(ptr noundef %58, ptr noundef %59)
  store i32 1, ptr %2, align 4
  store i32 1, ptr %10, align 4
  br label %61

61:                                               ; preds = %57, %34
  call void @llvm.lifetime.end.p0(i64 4, ptr %9) #6
  call void @llvm.lifetime.end.p0(i64 4, ptr %8) #6
  call void @llvm.lifetime.end.p0(i64 144, ptr %7) #6
  call void @llvm.lifetime.end.p0(i64 8, ptr %6) #6
  call void @llvm.lifetime.end.p0(i64 8, ptr %5) #6
  call void @llvm.lifetime.end.p0(i64 4, ptr %4) #6
  %62 = load i32, ptr %2, align 4
  ret i32 %62
}