; Function Attrs: nounwind uwtable
define internal i32 @db_setlocal(ptr noundef %0) #0 {
  %2 = alloca %struct.lua_Debug, align 8
  %3 = tail call i32 @lua_type(ptr noundef %0, i32 noundef 1) #8
  %4 = icmp eq i32 %3, 8
  br i1 %4, label %5, label %getthread.exit

5:                                                ; preds = %1
  %6 = tail call ptr @lua_tothread(ptr noundef %0, i32 noundef 1) #8
  br label %getthread.exit

getthread.exit:                                   ; preds = %1, %5
  %.022 = phi i32 [ 1, %5 ], [ 0, %1 ]
  %.0.i = phi ptr [ %6, %5 ], [ %0, %1 ]
  call void @llvm.lifetime.start.p0(i64 144, ptr nonnull %2) #8
  %7 = add nuw nsw i32 %.022, 1
  %8 = tail call i64 @luaL_checkinteger(ptr noundef %0, i32 noundef %7) #8
  %9 = trunc i64 %8 to i32
  %10 = or disjoint i32 %.022, 2
  %11 = tail call i64 @luaL_checkinteger(ptr noundef %0, i32 noundef %10) #8
  %12 = call i32 @lua_getstack(ptr noundef %.0.i, i32 noundef %9, ptr noundef nonnull %2) #8
  %.not = icmp eq i32 %12, 0
  br i1 %.not, label %13, label %15, !prof !9

13:                                               ; preds = %getthread.exit
  %14 = call i32 @luaL_argerror(ptr noundef %0, i32 noundef %7, ptr noundef nonnull @.str.50) #8
  br label %27

15:                                               ; preds = %getthread.exit
  %16 = trunc i64 %11 to i32
  %17 = add nuw nsw i32 %.022, 3
  call void @luaL_checkany(ptr noundef %0, i32 noundef %17) #8
  call void @lua_settop(ptr noundef %0, i32 noundef %17) #8
  %.not.i = icmp eq ptr %0, %.0.i
  br i1 %.not.i, label %checkstack.exit, label %18

18:                                               ; preds = %15
  %19 = call i32 @lua_checkstack(ptr noundef %.0.i, i32 noundef 1) #8
  %.not4.i = icmp eq i32 %19, 0
  br i1 %.not4.i, label %20, label %checkstack.exit, !prof !9

20:                                               ; preds = %18
  %21 = call i32 (ptr, ptr, ...) @luaL_error(ptr noundef %0, ptr noundef nonnull @.str.28) #8
  br label %checkstack.exit

checkstack.exit:                                  ; preds = %15, %18, %20
  call void @lua_xmove(ptr noundef %0, ptr noundef %.0.i, i32 noundef 1) #8
  %22 = call ptr @lua_setlocal(ptr noundef %.0.i, ptr noundef nonnull %2, i32 noundef %16) #8
  %23 = icmp eq ptr %22, null
  br i1 %23, label %24, label %25

24:                                               ; preds = %checkstack.exit
  call void @lua_settop(ptr noundef %.0.i, i32 noundef -2) #8
  br label %25

25:                                               ; preds = %24, %checkstack.exit
  %26 = call ptr @lua_pushstring(ptr noundef %0, ptr noundef %22) #8
  br label %27

27:                                               ; preds = %25, %13
  %.0 = phi i32 [ %14, %13 ], [ 1, %25 ]
  call void @llvm.lifetime.end.p0(i64 144, ptr nonnull %2) #8
  ret i32 %.0
}